Archive member included because of file (symbol)

./libcsud.a(device.keyboard.c.o)
                              build/keyboard.o (KeyboardGetAddress)
./libcsud.a(platform.c.o)     ./libcsud.a(device.keyboard.c.o) (MemoryAllocate)
./libcsud.a(usbd.c.o)         build/main.o (UsbInitialise)
./libcsud.a(device.hid.c.o)   ./libcsud.a(device.keyboard.c.o) (HidReadDevice)
./libcsud.a(device.hub.c.o)   ./libcsud.a(usbd.c.o) (HubPortReset)
./libcsud.a(hcd.designware20.c.o)
                              ./libcsud.a(usbd.c.o) (HcdSumbitControlMessage)
./libcsud.a(hcd.designware20.roothub.c.o)
                              ./libcsud.a(hcd.designware20.c.o) (HcdProcessRootHubMessage)
./libcsud.a(platform.armv6.c.o)
                              ./libcsud.a(hcd.designware20.c.o) (__aeabi_uidiv)
./libcsud.a(platform.broadcom2835.c.o)
                              ./libcsud.a(usbd.c.o) (MicroDelay)

Allocating common symbols
Common symbol       size              file

CorePhysical        0x4               ./libcsud.a(hcd.designware20.c.o)
DeviceNumbers       0x4               ./libcsud.a(usbd.c.o)
HostPhysical        0x4               ./libcsud.a(hcd.designware20.c.o)
keyboards           0x10              ./libcsud.a(device.keyboard.c.o)
PowerPhysical       0x4               ./libcsud.a(hcd.designware20.c.o)
Heap                0x4000            ./libcsud.a(platform.c.o)
Allocations         0xc00             ./libcsud.a(platform.c.o)

Discarded input sections

 .bss           0x0000000000000000        0x0 build/DrawImage.o
 .ARM.attributes
                0x0000000000000000       0x14 build/DrawImage.o
 .bss           0x0000000000000000        0x0 build/alien.o
 .ARM.attributes
                0x0000000000000000       0x14 build/alien.o
 .bss           0x0000000000000000        0x0 build/alien1_a.o
 .ARM.attributes
                0x0000000000000000       0x14 build/alien1_a.o
 .bss           0x0000000000000000        0x0 build/alien1_b.o
 .ARM.attributes
                0x0000000000000000       0x14 build/alien1_b.o
 .bss           0x0000000000000000        0x0 build/alien2_a.o
 .ARM.attributes
                0x0000000000000000       0x14 build/alien2_a.o
 .bss           0x0000000000000000        0x0 build/alien2_b.o
 .ARM.attributes
                0x0000000000000000       0x14 build/alien2_b.o
 .bss           0x0000000000000000        0x0 build/alien3_a.o
 .ARM.attributes
                0x0000000000000000       0x14 build/alien3_a.o
 .bss           0x0000000000000000        0x0 build/alien3_b.o
 .ARM.attributes
                0x0000000000000000       0x14 build/alien3_b.o
 .bss           0x0000000000000000        0x0 build/drawing.o
 .ARM.attributes
                0x0000000000000000       0x14 build/drawing.o
 .bss           0x0000000000000000        0x0 build/figuras.o
 .ARM.attributes
                0x0000000000000000       0x14 build/figuras.o
 .bss           0x0000000000000000        0x0 build/frameBuffer.o
 .ARM.attributes
                0x0000000000000000       0x14 build/frameBuffer.o
 .bss           0x0000000000000000        0x0 build/gpio.o
 .ARM.attributes
                0x0000000000000000       0x14 build/gpio.o
 .bss           0x0000000000000000        0x0 build/keyboard.o
 .ARM.attributes
                0x0000000000000000       0x14 build/keyboard.o
 .bss           0x0000000000000000        0x0 build/mailbox.o
 .ARM.attributes
                0x0000000000000000       0x14 build/mailbox.o
 .bss           0x0000000000000000        0x0 build/main.o
 .ARM.attributes
                0x0000000000000000       0x14 build/main.o
 .bss           0x0000000000000000        0x0 build/mann.o
 .ARM.attributes
                0x0000000000000000       0x14 build/mann.o
 .bss           0x0000000000000000        0x0 build/maths.o
 .ARM.attributes
                0x0000000000000000       0x14 build/maths.o
 .bss           0x0000000000000000        0x0 build/menu.o
 .ARM.attributes
                0x0000000000000000       0x14 build/menu.o
 .bss           0x0000000000000000        0x0 build/random.o
 .ARM.attributes
                0x0000000000000000       0x14 build/random.o
 .bss           0x0000000000000000        0x0 build/screen.o
 .ARM.attributes
                0x0000000000000000       0x14 build/screen.o
 .bss           0x0000000000000000        0x0 build/select.o
 .ARM.attributes
                0x0000000000000000       0x14 build/select.o
 .bss           0x0000000000000000        0x0 build/systemTimer.o
 .ARM.attributes
                0x0000000000000000       0x14 build/systemTimer.o
 .bss           0x0000000000000000        0x0 build/tags.o
 .ARM.attributes
                0x0000000000000000       0x14 build/tags.o
 .bss           0x0000000000000000        0x0 build/tank.o
 .ARM.attributes
                0x0000000000000000       0x14 build/tank.o
 .bss           0x0000000000000000        0x0 build/tank_blue.o
 .ARM.attributes
                0x0000000000000000       0x14 build/tank_blue.o
 .bss           0x0000000000000000        0x0 build/tank_green.o
 .ARM.attributes
                0x0000000000000000       0x14 build/tank_green.o
 .bss           0x0000000000000000        0x0 build/tank_red.o
 .ARM.attributes
                0x0000000000000000       0x14 build/tank_red.o
 .bss           0x0000000000000000        0x0 build/tank_white.o
 .ARM.attributes
                0x0000000000000000       0x14 build/tank_white.o
 .bss           0x0000000000000000        0x0 build/text.o
 .ARM.attributes
                0x0000000000000000       0x14 build/text.o
 .bss           0x0000000000000000        0x0 build/voyage.o
 .ARM.attributes
                0x0000000000000000       0x14 build/voyage.o

Memory Configuration

Name             Origin             Length             Attributes
*default*        0x0000000000000000 0xffffffffffffffff

Linker script and memory map

LOAD build/DrawImage.o
LOAD build/alien.o
LOAD build/alien1_a.o
LOAD build/alien1_b.o
LOAD build/alien2_a.o
LOAD build/alien2_b.o
LOAD build/alien3_a.o
LOAD build/alien3_b.o
LOAD build/drawing.o
LOAD build/figuras.o
LOAD build/frameBuffer.o
LOAD build/gpio.o
LOAD build/keyboard.o
LOAD build/mailbox.o
LOAD build/main.o
LOAD build/mann.o
LOAD build/maths.o
LOAD build/menu.o
LOAD build/random.o
LOAD build/screen.o
LOAD build/select.o
LOAD build/systemTimer.o
LOAD build/tags.o
LOAD build/tank.o
LOAD build/tank_blue.o
LOAD build/tank_green.o
LOAD build/tank_red.o
LOAD build/tank_white.o
LOAD build/text.o
LOAD build/voyage.o
LOAD ./libcsud.a

.init           0x0000000000008000        0x4
 *(.init)
 .init          0x0000000000008000        0x4 build/main.o
                0x0000000000008000                _start

.data           0x0000000000009000   0x7f80a2
 *(.data)
 .data          0x0000000000009000        0x0 build/DrawImage.o
 .data          0x0000000000009000        0x0 build/alien.o
 .data          0x0000000000009000     0x2c04 build/alien1_a.o
                0x0000000000009000                alien1_aHeight
                0x0000000000009002                alien1_aWidth
                0x0000000000009004                alien1_a
 .data          0x000000000000bc04     0x2c04 build/alien1_b.o
                0x000000000000bc04                alien1_bHeight
                0x000000000000bc06                alien1_bWidth
                0x000000000000bc08                alien1_b
 .data          0x000000000000e808     0x2004 build/alien2_a.o
                0x000000000000e808                alien2_aHeight
                0x000000000000e80a                alien2_aWidth
                0x000000000000e80c                alien2_a
 .data          0x000000000001080c     0x2004 build/alien2_b.o
                0x000000000001080c                alien2_bHeight
                0x000000000001080e                alien2_bWidth
                0x0000000000010810                alien2_b
 .data          0x0000000000012810     0x3004 build/alien3_a.o
                0x0000000000012810                alien3_aHeight
                0x0000000000012812                alien3_aWidth
                0x0000000000012814                alien3_a
 .data          0x0000000000015814     0x3004 build/alien3_b.o
                0x0000000000015814                alien3_bHeight
                0x0000000000015816                alien3_bWidth
                0x0000000000015818                alien3_b
 *fill*         0x0000000000018818        0x8 
 .data          0x0000000000018820   0x1cb810 build/drawing.o
                0x0000000000018824                graphicsAddress
 .data          0x00000000001e4030        0x0 build/figuras.o
 *fill*         0x00000000001e4030      0xfd0 
 .data          0x00000000001e5000     0x1000 build/frameBuffer.o
                0x00000000001e5000                FrameBufferInfo
 .data          0x00000000001e6000        0x0 build/gpio.o
 .data          0x00000000001e6000       0xe0 build/keyboard.o
 .data          0x00000000001e60e0        0x0 build/mailbox.o
 .data          0x00000000001e60e0        0x0 build/main.o
 .data          0x00000000001e60e0   0x180004 build/mann.o
                0x00000000001e60e0                mannHeight
                0x00000000001e60e2                mannWidth
                0x00000000001e60e4                mann
 .data          0x00000000003660e4        0x0 build/maths.o
 .data          0x00000000003660e4   0x180004 build/menu.o
                0x00000000003660e4                menuHeight
                0x00000000003660e6                menuWidth
                0x00000000003660e8                menu
 .data          0x00000000004e60e8        0x0 build/random.o
 .data          0x00000000004e60e8        0x0 build/screen.o
 .data          0x00000000004e60e8   0x180004 build/select.o
                0x00000000004e60e8                selectHeight
                0x00000000004e60ea                selectWidth
                0x00000000004e60ec                select
 .data          0x00000000006660ec        0x0 build/systemTimer.o
 .data          0x00000000006660ec       0x24 build/tags.o
 .data          0x0000000000666110        0x0 build/tank.o
 .data          0x0000000000666110     0x3c04 build/tank_blue.o
                0x0000000000666110                tank_blueHeight
                0x0000000000666112                tank_blueWidth
                0x0000000000666114                tank_blue
 .data          0x0000000000669d14     0x3c04 build/tank_green.o
                0x0000000000669d14                tank_greenHeight
                0x0000000000669d16                tank_greenWidth
                0x0000000000669d18                tank_green
 .data          0x000000000066d918     0x3c04 build/tank_red.o
                0x000000000066d918                tank_redHeight
                0x000000000066d91a                tank_redWidth
                0x000000000066d91c                tank_red
 .data          0x000000000067151c     0x3c04 build/tank_white.o
                0x000000000067151c                tank_whiteHeight
                0x000000000067151e                tank_whiteWidth
                0x0000000000671520                tank_white
 .data          0x0000000000675120        0x0 build/text.o
 .data          0x0000000000675120   0x180004 build/voyage.o
                0x0000000000675120                voyageHeight
                0x0000000000675122                voyageWidth
                0x0000000000675124                voyage
 .data          0x00000000007f5124        0x0 ./libcsud.a(device.keyboard.c.o)
 .data          0x00000000007f5124        0x4 ./libcsud.a(platform.c.o)
                0x00000000007f5124                FirstAllocation
 .data          0x00000000007f5128        0x0 ./libcsud.a(usbd.c.o)
 .data          0x00000000007f5128        0x0 ./libcsud.a(device.hid.c.o)
 .data          0x00000000007f5128        0x0 ./libcsud.a(device.hub.c.o)
 .data          0x00000000007f5128        0x0 ./libcsud.a(hcd.designware20.c.o)
 .data          0x00000000007f5128       0x64 ./libcsud.a(hcd.designware20.roothub.c.o)
                0x00000000007f5128                DeviceDescriptor
                0x00000000007f513c                ConfigurationDescriptor
                0x00000000007f5158                String0
                0x00000000007f515c                String1
                0x00000000007f5180                HubDescriptor
 .data          0x00000000007f518c        0x0 ./libcsud.a(platform.armv6.c.o)
 .data          0x00000000007f518c        0x0 ./libcsud.a(platform.broadcom2835.c.o)
 *.c.o(*)
 .text          0x00000000007f518c     0x1000 ./libcsud.a(device.keyboard.c.o)
                0x00000000007f518c                KeyboardDetached
                0x00000000007f5208                KeyboardDeallocate
                0x00000000007f5280                KeyboardIndex
                0x00000000007f52d8                KeyboardGetAddress
                0x00000000007f5320                KeyboardScan
                0x00000000007f59ec                KeyboardCount
                0x00000000007f59fc                KeyboardSetLeds
                0x00000000007f5c18                KeyboardGetLedSupport
                0x00000000007f5c64                KeyboardPoll
                0x00000000007f5fa8                KeyboardGetModifiers
                0x00000000007f5ff4                KeyboardGetKeyDownCount
                0x00000000007f6058                KeyboadGetKeyIsDown
                0x00000000007f6110                KeyboardGetKeyDown
 .bss           0x00000000007f618c       0x14 ./libcsud.a(device.keyboard.c.o)
                0x00000000007f618c                keyboardAddresses
                0x00000000007f619c                keyboardCount
 .comment       0x00000000007f61a0       0x11 ./libcsud.a(device.keyboard.c.o)
                                         0x12 (size before relaxing)
 .ARM.attributes
                0x00000000007f61b1       0x32 ./libcsud.a(device.keyboard.c.o)
 *fill*         0x00000000007f61e3        0x1 
 COMMON         0x00000000007f61e4       0x10 ./libcsud.a(device.keyboard.c.o)
                0x00000000007f61e4                keyboards
 .text          0x00000000007f61f4      0x5c0 ./libcsud.a(platform.c.o)
                0x00000000007f61f4                MemoryReserve
                0x00000000007f61fc                MemoryAllocate
                0x00000000007f664c                MemoryDeallocate
                0x00000000007f6764                MemoryCopy
 .bss           0x00000000007f67b4        0x8 ./libcsud.a(platform.c.o)
                0x00000000007f67b4                FirstFreeAllocation
                0x00000000007f67b8                allocated
 .comment       0x0000000000000000       0x12 ./libcsud.a(platform.c.o)
 .ARM.attributes
                0x00000000007f67bc       0x32 ./libcsud.a(platform.c.o)
 *fill*         0x00000000007f67ee        0x2 
 COMMON         0x00000000007f67f0     0x4c00 ./libcsud.a(platform.c.o)
                0x00000000007f67f0                Heap
                0x00000000007fa7f0                Allocations
 .text          0x00000000007fb3f0     0x10e8 ./libcsud.a(usbd.c.o)
                0x00000000007fb3f0                UsbGetRootHub
                0x00000000007fb400                UsbPrintDeviceTree
                0x00000000007fb4cc                UsbControlMessage
                0x00000000007fb5c4                UsbGetDescriptor
                0x00000000007fb6b0                UsbGetString
                0x00000000007fb71c                UsbReadStringLang
                0x00000000007fb7a0                UsbReadString
                0x00000000007fb8a0                UsbReadDeviceDescriptor
                0x00000000007fb9e0                UsbSetAddress
                0x00000000007fbac0                UsbSetConfiguration
                0x00000000007fbb94                UsbConfigure
                0x00000000007fbd64                UsbGetDescription
                0x00000000007fc014                UsbScanDevice
                0x00000000007fc23c                UsbAllocateDevice
                0x00000000007fc2f8                UsbDeallocateDevice
                0x00000000007fc410                UsbScanRootHub
                0x00000000007fc460                UsbInitialise
                0x00000000007fc4bc                UsbCheckForChange
 .bss           0x00000000007fc4d8        0x4 ./libcsud.a(usbd.c.o)
                0x00000000007fc4d8                RootHub
 .rodata        0x00000000007fc4dc      0x248 ./libcsud.a(usbd.c.o)
 .rodata.str1.4
                0x00000000007fc724       0x10 ./libcsud.a(usbd.c.o)
 .comment       0x0000000000000000       0x12 ./libcsud.a(usbd.c.o)
 .ARM.attributes
                0x00000000007fc734       0x32 ./libcsud.a(usbd.c.o)
 *fill*         0x00000000007fc766        0x2 
 COMMON         0x00000000007fc768        0x4 ./libcsud.a(usbd.c.o)
                0x00000000007fc768                DeviceNumbers
 .text          0x00000000007fc76c     0x1b24 ./libcsud.a(device.hid.c.o)
                0x00000000007fc76c                HidEnumerateActionCountField
                0x00000000007fc894                HidDetached
                0x00000000007fc8d0                HidEnumerateActionAddField
                0x00000000007fd0d8                HidDeallocate
                0x00000000007fd22c                HidEnumerateActionCountReport
                0x00000000007fd2e4                HidGetReport
                0x00000000007fd3a0                HidSetReport
                0x00000000007fd450                BitSet
                0x00000000007fd57c                BitGetUnsigned
                0x00000000007fd684                BitGetSigned
                0x00000000007fd6b0                HidReadDevice
                0x00000000007fd8ac                HidWriteDevice
                0x00000000007fda58                HidSetProtocol
                0x00000000007fdb08                HidEnumerateReport
                0x00000000007fdc60                HidParseReportDescriptor
                0x00000000007fdf90                HidScan
                0x00000000007fe280                HidGetFieldValue
 .bss           0x00000000007fe290        0x0 ./libcsud.a(device.hid.c.o)
 .comment       0x0000000000000000       0x12 ./libcsud.a(device.hid.c.o)
 .ARM.attributes
                0x00000000007fe290       0x32 ./libcsud.a(device.hid.c.o)
 *fill*         0x00000000007fe2c2        0x2 
 .text          0x00000000007fe2c4      0xd34 ./libcsud.a(device.hub.c.o)
                0x00000000007fe2c4                HubDetached
                0x00000000007fe364                HubDeallocate
                0x00000000007fe440                HubReadDescriptor
                0x00000000007fe538                HubGetStatus
                0x00000000007fe610                HubPortGetStatus
                0x00000000007fe6f0                HubChangeFeature
                0x00000000007fe7a4                HubChangePortFeature
                0x00000000007fe860                HubPowerOn
                0x00000000007fe908                HubPortReset
                0x00000000007fe9dc                HubPortConnectionChanged
                0x00000000007febe4                HubCheckConnection
                0x00000000007fed18                HubRecursiveCheck
                0x00000000007fede0                HubScan
 .bss           0x00000000007feff8        0x0 ./libcsud.a(device.hub.c.o)
 .comment       0x0000000000000000       0x12 ./libcsud.a(device.hub.c.o)
 .ARM.attributes
                0x00000000007feff8       0x32 ./libcsud.a(device.hub.c.o)
 *fill*         0x00000000007ff02a        0x2 
 .text          0x00000000007ff02c     0x160c ./libcsud.a(hcd.designware20.c.o)
                0x00000000007ff02c                WriteThroughRegMask
                0x00000000007ff0c0                WriteThroughReg
                0x00000000007ff0c8                ReadBackReg
                0x00000000007ff16c                ClearReg
                0x00000000007ff1d4                SetReg
                0x00000000007ff270                HcdReset
                0x00000000007ff320                HcdTransmitFifoFlush
                0x00000000007ff3b4                HcdReceiveFifoFlush
                0x00000000007ff42c                HcdPrepareChannel
                0x00000000007ff744                HcdTransmitChannel
                0x00000000007ff7f0                HcdChannelInterruptToError
                0x00000000007ff8cc                HcdChannelSendWaitOne
                0x00000000007ffb88                HcdChannelSendWait
                0x00000000007ffca0                HcdSumbitControlMessage
                0x00000000007ffee8                HcdInitialise
                0x000000000080007c                HcdStart
                0x00000000008005d8                HcdStop
                0x00000000008005fc                HcdDeinitialise
 .bss           0x0000000000800638       0x14 ./libcsud.a(hcd.designware20.c.o)
                0x0000000000800638                Core
                0x000000000080063c                Host
                0x0000000000800640                Power
                0x0000000000800644                databuffer
                0x0000000000800648                PhyInitialised
 .comment       0x0000000000000000       0x12 ./libcsud.a(hcd.designware20.c.o)
 .ARM.attributes
                0x000000000080064c       0x32 ./libcsud.a(hcd.designware20.c.o)
 *fill*         0x000000000080067e        0x2 
 COMMON         0x0000000000800680        0xc ./libcsud.a(hcd.designware20.c.o)
                0x0000000000800680                CorePhysical
                0x0000000000800684                HostPhysical
                0x0000000000800688                PowerPhysical
 .text          0x000000000080068c      0x6f0 ./libcsud.a(hcd.designware20.roothub.c.o)
                0x000000000080068c                HcdProcessRootHubMessage
 .bss           0x0000000000800d7c        0x4 ./libcsud.a(hcd.designware20.roothub.c.o)
                0x0000000000800d7c                RootHubDeviceNumber
 .comment       0x0000000000000000       0x12 ./libcsud.a(hcd.designware20.roothub.c.o)
 .ARM.attributes
                0x0000000000800d80       0x32 ./libcsud.a(hcd.designware20.roothub.c.o)
 *fill*         0x0000000000800db2        0x2 
 .text          0x0000000000800db4      0x16c ./libcsud.a(platform.armv6.c.o)
                0x0000000000800db4                __aeabi_uidivmod
                0x0000000000800ee8                __aeabi_uidiv
 .bss           0x0000000000800f20        0x0 ./libcsud.a(platform.armv6.c.o)
 .comment       0x0000000000000000       0x12 ./libcsud.a(platform.armv6.c.o)
 .ARM.attributes
                0x0000000000800f20       0x32 ./libcsud.a(platform.armv6.c.o)
 *fill*         0x0000000000800f52        0x2 
 .text          0x0000000000800f54      0x11c ./libcsud.a(platform.broadcom2835.c.o)
                0x0000000000800f54                MicroDelay
                0x0000000000800fc4                PowerOnUsb
 .bss           0x0000000000801070        0x0 ./libcsud.a(platform.broadcom2835.c.o)
 .comment       0x0000000000000000       0x12 ./libcsud.a(platform.broadcom2835.c.o)
 .ARM.attributes
                0x0000000000801070       0x32 ./libcsud.a(platform.broadcom2835.c.o)

.text           0x00000000008010a4      0xfe4
 *.c.o(.text)
 *(.text)
 .text          0x00000000008010a4      0x140 build/DrawImage.o
                0x00000000008010a4                DrawImage
                0x0000000000801100                DrawImageTransparency
                0x0000000000801168                DrawBackground
 .text          0x00000000008011e4      0x1d4 build/alien.o
                0x00000000008011e4                alien
 .text          0x00000000008013b8        0x0 build/alien1_a.o
 .text          0x00000000008013b8        0x0 build/alien1_b.o
 .text          0x00000000008013b8        0x0 build/alien2_a.o
 .text          0x00000000008013b8        0x0 build/alien2_b.o
 .text          0x00000000008013b8        0x0 build/alien3_a.o
 .text          0x00000000008013b8        0x0 build/alien3_b.o
 .text          0x00000000008013b8      0x1dc build/drawing.o
                0x00000000008013b8                SetForeColour
                0x00000000008013d0                SetGraphicsAddress
                0x00000000008013dc                DrawPixel
                0x0000000000801428                DrawLine
                0x00000000008014a4                DrawCharacter
                0x0000000000801510                DrawString
 .text          0x0000000000801594      0x278 build/figuras.o
                0x0000000000801594                DrawCircle
                0x00000000008016f4                DrawRectangle
                0x0000000000801730                DrawTriangle
                0x0000000000801778                DrawTriangleI
                0x00000000008017c4                DrawTriangleRectangle
 .text          0x000000000080180c       0x60 build/frameBuffer.o
                0x000000000080180c                InitialiseFrameBuffer
 .text          0x000000000080186c       0xb8 build/gpio.o
                0x000000000080186c                GetGpioAddress
                0x0000000000801874                SetGpioFunction
                0x00000000008018c4                SetGpio
                0x0000000000801900                GetGpio
 .text          0x0000000000801924      0x144 build/keyboard.o
                0x0000000000801924                KeyboardUpdate
                0x00000000008019a8                KeyWasDown
                0x00000000008019d8                KeyboardGetChar
 .text          0x0000000000801a68       0x6c build/mailbox.o
                0x0000000000801a68                GetMailboxBase
                0x0000000000801a70                MailboxRead
                0x0000000000801aa4                MailboxWrite
 .text          0x0000000000801ad4       0x4c build/main.o
 .text          0x0000000000801b20        0x0 build/mann.o
 .text          0x0000000000801b20       0x48 build/maths.o
                0x0000000000801b20                DivideU32
 .text          0x0000000000801b68        0x0 build/menu.o
 .text          0x0000000000801b68       0x18 build/random.o
                0x0000000000801b68                Random
 .text          0x0000000000801b80      0x14c build/screen.o
                0x0000000000801b80                screen1
                0x0000000000801bb8                screen2
                0x0000000000801c54                screen3
                0x0000000000801c70                screenLoop
                0x0000000000801c74                screen4
                0x0000000000801c78                screen5
                0x0000000000801c7c                clear
 .text          0x0000000000801ccc        0x0 build/select.o
 .text          0x0000000000801ccc       0x40 build/systemTimer.o
                0x0000000000801ccc                GetSystemTimerBase
                0x0000000000801cd4                GetTimeStamp
                0x0000000000801ce4                Wait
 .text          0x0000000000801d0c       0x74 build/tags.o
                0x0000000000801d0c                FindTag
 .text          0x0000000000801d80      0x124 build/tank.o
                0x0000000000801d80                tank
                0x0000000000801dcc                tankMovement
                0x0000000000801e6c                player_Xposition
                0x0000000000801e70                player_Yposition
                0x0000000000801e74                player_lives
                0x0000000000801e78                player_points
                0x0000000000801e7c                player_special
                0x0000000000801e80                selectedTank
 .text          0x0000000000801ea4        0x0 build/tank_blue.o
 .text          0x0000000000801ea4        0x0 build/tank_green.o
 .text          0x0000000000801ea4        0x0 build/tank_red.o
 .text          0x0000000000801ea4        0x0 build/tank_white.o
 .text          0x0000000000801ea4      0x1e4 build/text.o
                0x0000000000801ea4                ReverseString
                0x0000000000801ed0                UnsignedString
                0x0000000000801f20                SignedString
                0x0000000000801f4c                FormatString
 .text          0x0000000000802088        0x0 build/voyage.o

/DISCARD/
 *(*)
OUTPUT(build/output.elf elf32-littlearm)
